target datalayout = "e-m:e-p270:32:32-p271:32:32-p272:64:64-i64:64-i128:128-f80:128-n8:16:32:64-S128"
target triple = "x86_64-unknown-linux-gnu"

%"class.icu_75::UObject" = type { ptr }
%"class.icu_75::FixedDecimal" = type { %"class.icu_75::IFixedDecimal", %"class.icu_75::UObject", double, i32, i64, i64, i64, i32, i8, i8, i8, i8 }
%"class.icu_75::IFixedDecimal" = type { ptr }

; Function Attrs: mustprogress nounwind uwtable
define noundef zeroext i1 @_ZNK6icu_7512FixedDecimal15isNanOrInfinityEv(ptr noundef nonnull align 8 dereferenceable(64) %this) #0 align 2 {
entry:
  %this.addr = alloca ptr, align 8
  store ptr %this, ptr %this.addr, align 8
  %this1 = load ptr, ptr %this.addr, align 8
  %_isNaN = getelementptr inbounds %"class.icu_75::FixedDecimal", ptr %this1, i32 0, i32 10
  %0 = load i8, ptr %_isNaN, align 2
  %tobool = icmp ne i8 %0, 0
  br i1 %tobool, label %lor.end, label %lor.rhs

lor.rhs:                                          ; preds = %entry
  %_isInfinite = getelementptr inbounds %"class.icu_75::FixedDecimal", ptr %this1, i32 0, i32 11
  %1 = load i8, ptr %_isInfinite, align 1
  %tobool2 = icmp ne i8 %1, 0
  br label %lor.end

lor.end:                                          ; preds = %lor.rhs, %entry
  %2 = phi i1 [ true, %entry ], [ %tobool2, %lor.rhs ]
  ret i1 %2
}