; Function Attrs: mustprogress nofree norecurse nosync nounwind willreturn memory(argmem: read) uwtable
define noundef zeroext i1 @_ZNK6icu_7512FixedDecimal15isNanOrInfinityEv(ptr nocapture noundef nonnull readonly align 8 dereferenceable(64) %this) local_unnamed_addr #11 align 2 {
entry:
  %_isNaN = getelementptr inbounds i8, ptr %this, i64 62
  %0 = load i8, ptr %_isNaN, align 2
  %tobool.not = icmp ne i8 %0, 0
  %_isInfinite = getelementptr inbounds i8, ptr %this, i64 63
  %1 = load i8, ptr %_isInfinite, align 1
  %tobool2 = icmp ne i8 %1, 0
  %2 = select i1 %tobool.not, i1 true, i1 %tobool2
  ret i1 %2
}